target datalayout = "e-m:e-p270:32:32-p271:32:32-p272:64:64-i64:64-i128:128-f80:128-n8:16:32:64-S128"
target triple = "x86_64-pc-linux-gnu"

%struct.SDL_AudioStream = type { ptr, i32, ptr, ptr, ptr, ptr, %struct.SDL_AudioSpec, %struct.SDL_AudioSpec, ptr, ptr, float, float, ptr, %struct.SDL_AudioSpec, ptr, [8 x i32], i64, ptr, i64, i8, ptr, ptr, ptr, ptr, ptr }
%struct.SDL_AudioSpec = type { i32, i32, i32 }

; Function Attrs: nounwind uwtable
define internal i64 @GetAudioStreamResampleRate(ptr noundef %0, i32 noundef %1, i64 noundef %2) #0 {
  %4 = alloca ptr, align 8
  %5 = alloca i32, align 4
  %6 = alloca i64, align 8
  %7 = alloca i64, align 8
  store ptr %0, ptr %4, align 8
  store i32 %1, ptr %5, align 4
  store i64 %2, ptr %6, align 8
  %8 = load i32, ptr %5, align 4
  %9 = sitofp i32 %8 to float
  %10 = load ptr, ptr %4, align 8
  %11 = getelementptr inbounds nuw %struct.SDL_AudioStream, ptr %10, i32 0, i32 10
  %12 = load float, ptr %11, align 8
  %13 = fmul float %9, %12
  %14 = fptosi float %13 to i32
  store i32 %14, ptr %5, align 4
  call void @llvm.lifetime.start.p0(i64 8, ptr %7) #7
  %15 = load i32, ptr %5, align 4
  %16 = load ptr, ptr %4, align 8
  %17 = getelementptr inbounds nuw %struct.SDL_AudioStream, ptr %16, i32 0, i32 7
  %18 = getelementptr inbounds nuw %struct.SDL_AudioSpec, ptr %17, i32 0, i32 2
  %19 = load i32, ptr %18, align 4
  %20 = call i64 @SDL_GetResampleRate(i32 noundef %15, i32 noundef %19)
  store i64 %20, ptr %7, align 8
  %21 = load i64, ptr %7, align 8
  %22 = icmp eq i64 %21, 4294967296
  br i1 %22, label %23, label %27

23:                                               ; preds = %3
  %24 = load i64, ptr %6, align 8
  %25 = icmp eq i64 %24, 0
  br i1 %25, label %26, label %27

26:                                               ; preds = %23
  store i64 0, ptr %7, align 8
  br label %27

27:                                               ; preds = %26, %23, %3
  %28 = load i64, ptr %7, align 8
  call void @llvm.lifetime.end.p0(i64 8, ptr %7) #7
  ret i64 %28
}

; Function Attrs: nounwind uwtable
define internal i64 @NextAudioStreamIter(ptr noundef %0, ptr noundef %1, ptr noundef %2, ptr noundef %3, ptr noundef %4, ptr noundef %5) #0 {
  %7 = alloca i64, align 8
  %8 = alloca ptr, align 8
  %9 = alloca ptr, align 8
  %10 = alloca ptr, align 8
  %11 = alloca ptr, align 8
  %12 = alloca ptr, align 8
  %13 = alloca ptr, align 8
  %14 = alloca %struct.SDL_AudioSpec, align 4
  %15 = alloca i8, align 1
  %16 = alloca ptr, align 8
  %17 = alloca i64, align 8
  %18 = alloca i32, align 4
  %19 = alloca i64, align 8
  %20 = alloca i64, align 8
  %21 = alloca i64, align 8
  store ptr %0, ptr %8, align 8
  store ptr %1, ptr %9, align 8
  store ptr %2, ptr %10, align 8
  store ptr %3, ptr %11, align 8
  store ptr %4, ptr %12, align 8
  store ptr %5, ptr %13, align 8
  call void @llvm.lifetime.start.p0(i64 12, ptr %14) #7
  call void @llvm.lifetime.start.p0(i64 1, ptr %15) #7
  call void @llvm.lifetime.start.p0(i64 8, ptr %16) #7
  call void @llvm.lifetime.start.p0(i64 8, ptr %17) #7
  %22 = load ptr, ptr %8, align 8
  %23 = getelementptr inbounds nuw %struct.SDL_AudioStream, ptr %22, i32 0, i32 12
  %24 = load ptr, ptr %23, align 8
  %25 = load ptr, ptr %9, align 8
  %26 = call i64 @SDL_NextAudioQueueIter(ptr noundef %24, ptr noundef %25, ptr noundef %14, ptr noundef %16, ptr noundef %15)
  store i64 %26, ptr %17, align 8
  %27 = load ptr, ptr %11, align 8
  %28 = icmp ne ptr %27, null
  br i1 %28, label %29, label %31

29:                                               ; preds = %6
  %30 = load ptr, ptr %11, align 8
  call void @llvm.memcpy.p0.p0.i64(ptr align 4 %30, ptr align 4 %14, i64 12, i1 false)
  br label %31

31:                                               ; preds = %29, %6
  %32 = load ptr, ptr %12, align 8
  %33 = icmp ne ptr %32, null
  br i1 %33, label %34, label %37

34:                                               ; preds = %31
  %35 = load ptr, ptr %16, align 8
  %36 = load ptr, ptr %12, align 8
  store ptr %35, ptr %36, align 8
  br label %37

37:                                               ; preds = %34, %31
  %38 = load i64, ptr %17, align 8
  %39 = icmp eq i64 %38, -1
  br i1 %39, label %40, label %47

40:                                               ; preds = %37
  %41 = load ptr, ptr %10, align 8
  store i64 0, ptr %41, align 8
  %42 = load ptr, ptr %13, align 8
  %43 = icmp ne ptr %42, null
  br i1 %43, label %44, label %46

44:                                               ; preds = %40
  %45 = load ptr, ptr %13, align 8
  store i8 0, ptr %45, align 1
  br label %46

46:                                               ; preds = %44, %40
  store i64 2147483647, ptr %7, align 8
  store i32 1, ptr %18, align 4
  br label %96

47:                                               ; preds = %37
  call void @llvm.lifetime.start.p0(i64 8, ptr %19) #7
  %48 = load ptr, ptr %10, align 8
  %49 = load i64, ptr %48, align 8
  store i64 %49, ptr %19, align 8
  call void @llvm.lifetime.start.p0(i64 8, ptr %20) #7
  %50 = load ptr, ptr %8, align 8
  %51 = getelementptr inbounds nuw %struct.SDL_AudioSpec, ptr %14, i32 0, i32 2
  %52 = load i32, ptr %51, align 4
  %53 = load i64, ptr %19, align 8
  %54 = call i64 @GetAudioStreamResampleRate(ptr noundef %50, i32 noundef %52, i64 noundef %53)
  store i64 %54, ptr %20, align 8
  call void @llvm.lifetime.start.p0(i64 8, ptr %21) #7
  %55 = load i64, ptr %17, align 8
  %56 = getelementptr inbounds nuw %struct.SDL_AudioSpec, ptr %14, i32 0, i32 0
  %57 = load i32, ptr %56, align 4
  %58 = and i32 %57, 255
  %59 = udiv i32 %58, 8
  %60 = getelementptr inbounds nuw %struct.SDL_AudioSpec, ptr %14, i32 0, i32 1
  %61 = load i32, ptr %60, align 4
  %62 = mul i32 %59, %61
  %63 = zext i32 %62 to i64
  %64 = udiv i64 %55, %63
  store i64 %64, ptr %21, align 8
  %65 = load i64, ptr %20, align 8
  %66 = icmp ne i64 %65, 0
  br i1 %66, label %67, label %80

67:                                               ; preds = %47
  %68 = load i8, ptr %15, align 1, !range !6, !noundef !7
  %69 = trunc i8 %68 to i1
  br i1 %69, label %76, label %70

70:                                               ; preds = %67
  %71 = load i64, ptr %20, align 8
  %72 = call i32 @SDL_GetResamplerPaddingFrames(i64 noundef %71)
  %73 = sext i32 %72 to i64
  %74 = load i64, ptr %21, align 8
  %75 = sub nsw i64 %74, %73
  store i64 %75, ptr %21, align 8
  br label %76

76:                                               ; preds = %70, %67
  %77 = load i64, ptr %21, align 8
  %78 = load i64, ptr %20, align 8
  %79 = call i64 @SDL_GetResamplerOutputFrames(i64 noundef %77, i64 noundef %78, ptr noundef %19)
  store i64 %79, ptr %21, align 8
  br label %80

80:                                               ; preds = %76, %47
  %81 = load i8, ptr %15, align 1, !range !6, !noundef !7
  %82 = trunc i8 %81 to i1
  br i1 %82, label %83, label %84

83:                                               ; preds = %80
  store i64 0, ptr %19, align 8
  br label %84

84:                                               ; preds = %83, %80
  %85 = load i64, ptr %19, align 8
  %86 = load ptr, ptr %10, align 8
  store i64 %85, ptr %86, align 8
  %87 = load ptr, ptr %13, align 8
  %88 = icmp ne ptr %87, null
  br i1 %88, label %89, label %94

89:                                               ; preds = %84
  %90 = load i8, ptr %15, align 1, !range !6, !noundef !7
  %91 = trunc i8 %90 to i1
  %92 = load ptr, ptr %13, align 8
  %93 = zext i1 %91 to i8
  store i8 %93, ptr %92, align 1
  br label %94

94:                                               ; preds = %89, %84
  %95 = load i64, ptr %21, align 8
  store i64 %95, ptr %7, align 8
  store i32 1, ptr %18, align 4
  call void @llvm.lifetime.end.p0(i64 8, ptr %21) #7
  call void @llvm.lifetime.end.p0(i64 8, ptr %20) #7
  call void @llvm.lifetime.end.p0(i64 8, ptr %19) #7
  br label %96

96:                                               ; preds = %94, %46
  call void @llvm.lifetime.end.p0(i64 8, ptr %17) #7
  call void @llvm.lifetime.end.p0(i64 8, ptr %16) #7
  call void @llvm.lifetime.end.p0(i64 1, ptr %15) #7
  call void @llvm.lifetime.end.p0(i64 12, ptr %14) #7
  %97 = load i64, ptr %7, align 8
  ret i64 %97
}