; Function Attrs: nounwind uwtable
define internal fastcc i64 @NextAudioStreamIter(ptr noundef nonnull readonly captures(none) %0, ptr noundef nonnull %1, ptr noundef nonnull captures(none) %2, ptr noundef writeonly captures(address_is_null) %3, ptr noundef writeonly captures(address_is_null) %4, ptr noundef writeonly captures(address_is_null) %5) unnamed_addr #2 {
  %7 = alloca %struct.SDL_AudioSpec, align 4
  %8 = alloca i8, align 1
  %9 = alloca ptr, align 8
  %10 = alloca i64, align 8
  call void @llvm.lifetime.start.p0(i64 12, ptr nonnull %7) #11
  call void @llvm.lifetime.start.p0(i64 1, ptr nonnull %8) #11
  call void @llvm.lifetime.start.p0(i64 8, ptr nonnull %9) #11
  %11 = getelementptr inbounds nuw i8, ptr %0, i64 96
  %12 = load ptr, ptr %11, align 8
  %13 = call i64 @SDL_NextAudioQueueIter(ptr noundef %12, ptr noundef nonnull %1, ptr noundef nonnull %7, ptr noundef nonnull %9, ptr noundef nonnull %8) #11
  %.not = icmp eq ptr %3, null
  br i1 %.not, label %15, label %14

14:                                               ; preds = %6
  call void @llvm.memcpy.p0.p0.i64(ptr noundef nonnull align 4 dereferenceable(12) %3, ptr noundef nonnull align 4 dereferenceable(12) %7, i64 12, i1 false)
  br label %15

15:                                               ; preds = %14, %6
  %.not29 = icmp eq ptr %4, null
  br i1 %.not29, label %18, label %16

16:                                               ; preds = %15
  %17 = load ptr, ptr %9, align 8
  store ptr %17, ptr %4, align 8
  br label %18

18:                                               ; preds = %16, %15
  %19 = icmp eq i64 %13, -1
  br i1 %19, label %20, label %22

20:                                               ; preds = %18
  store i64 0, ptr %2, align 8
  %.not32 = icmp eq ptr %5, null
  br i1 %.not32, label %57, label %21

21:                                               ; preds = %20
  store i8 0, ptr %5, align 1
  br label %57

22:                                               ; preds = %18
  call void @llvm.lifetime.start.p0(i64 8, ptr nonnull %10) #11
  %23 = load i64, ptr %2, align 8
  store i64 %23, ptr %10, align 8
  %24 = getelementptr inbounds nuw i8, ptr %7, i64 8
  %25 = load i32, ptr %24, align 4
  %26 = getelementptr i8, ptr %0, i64 68
  %.val = load i32, ptr %26, align 4
  %27 = getelementptr i8, ptr %0, i64 88
  %.val33 = load float, ptr %27, align 8
  %28 = sitofp i32 %25 to float
  %29 = fmul float %.val33, %28
  %30 = fptosi float %29 to i32
  %31 = call i64 @SDL_GetResampleRate(i32 noundef %30, i32 noundef %.val) #11
  %32 = icmp eq i64 %31, 4294967296
  %33 = icmp eq i64 %23, 0
  %or.cond.i = and i1 %33, %32
  %34 = load i32, ptr %7, align 4
  %35 = lshr i32 %34, 3
  %36 = and i32 %35, 31
  %37 = getelementptr inbounds nuw i8, ptr %7, i64 4
  %38 = load i32, ptr %37, align 4
  %39 = mul i32 %36, %38
  %40 = zext i32 %39 to i64
  %41 = udiv i64 %13, %40
  %.not3034 = icmp eq i64 %31, 0
  %.not30 = or i1 %.not3034, %or.cond.i
  br i1 %.not30, label %51, label %42

42:                                               ; preds = %22
  %43 = load i8, ptr %8, align 1, !range !35, !noundef !36
  %44 = trunc nuw i8 %43 to i1
  br i1 %44, label %49, label %45

45:                                               ; preds = %42
  %46 = call i32 @SDL_GetResamplerPaddingFrames(i64 noundef %31) #11
  %47 = sext i32 %46 to i64
  %48 = sub nsw i64 %41, %47
  br label %49

49:                                               ; preds = %45, %42
  %.1 = phi i64 [ %41, %42 ], [ %48, %45 ]
  %50 = call i64 @SDL_GetResamplerOutputFrames(i64 noundef %.1, i64 noundef %31, ptr noundef nonnull %10) #11
  br label %51

51:                                               ; preds = %49, %22
  %.0 = phi i64 [ %50, %49 ], [ %41, %22 ]
  %52 = load i8, ptr %8, align 1, !range !35, !noundef !36
  %53 = trunc nuw i8 %52 to i1
  %.pre = load i64, ptr %10, align 8
  %54 = select i1 %53, i64 0, i64 %.pre
  store i64 %54, ptr %2, align 8
  %.not31 = icmp eq ptr %5, null
  br i1 %.not31, label %56, label %55

55:                                               ; preds = %51
  store i8 %52, ptr %5, align 1
  br label %56

56:                                               ; preds = %55, %51
  call void @llvm.lifetime.end.p0(i64 8, ptr nonnull %10) #11
  br label %57

57:                                               ; preds = %20, %21, %56
  %.022 = phi i64 [ %.0, %56 ], [ 2147483647, %21 ], [ 2147483647, %20 ]
  call void @llvm.lifetime.end.p0(i64 8, ptr nonnull %9) #11
  call void @llvm.lifetime.end.p0(i64 1, ptr nonnull %8) #11
  call void @llvm.lifetime.end.p0(i64 12, ptr nonnull %7) #11
  ret i64 %.022
}